target datalayout = "e-m:e-p270:32:32-p271:32:32-p272:64:64-i64:64-i128:128-f80:128-n8:16:32:64-S128"
target triple = "x86_64-unknown-linux-gnu"

%struct.cchar_t = type { i32, [5 x i32], i32 }
%struct.__mbstate_t = type { i32, %union.anon.0 }
%union.anon.0 = type { i32 }

@stderr = external global ptr, align 8
@vga_to_curses = internal global ptr null, align 8
@.str.8 = private unnamed_addr constant [66 x i8] c"Could not convert 0x%04x from UCS-2 to a multibyte character: %s\0A\00", align 1
@.str.9 = private unnamed_addr constant [68 x i8] c"Could not convert 0x%04x from a multibyte character to wchar_t: %s\0A\00", align 1

; Function Attrs: nounwind sspstrong uwtable
define internal void @convert_ucs(i8 noundef zeroext %fch, i16 noundef zeroext %uch, ptr noundef %conv) #0 {
entry:
  %fch.addr = alloca i8, align 1
  %uch.addr = alloca i16, align 2
  %conv.addr = alloca ptr, align 8
  %mbch = alloca [16 x i8], align 16
  %wch = alloca [2 x i32], align 4
  %puch = alloca ptr, align 8
  %pmbch = alloca ptr, align 8
  %such = alloca i64, align 8
  %smbch = alloca i64, align 8
  %ps = alloca %struct.__mbstate_t, align 4
  store i8 %fch, ptr %fch.addr, align 1
  store i16 %uch, ptr %uch.addr, align 2
  store ptr %conv, ptr %conv.addr, align 8
  store ptr %uch.addr, ptr %puch, align 8
  %arraydecay = getelementptr inbounds [16 x i8], ptr %mbch, i64 0, i64 0
  store ptr %arraydecay, ptr %pmbch, align 8
  store i64 2, ptr %such, align 8
  store i64 16, ptr %smbch, align 8
  %0 = load ptr, ptr %conv.addr, align 8
  %call = call i64 @iconv(ptr noundef %0, ptr noundef %puch, ptr noundef %such, ptr noundef %pmbch, ptr noundef %smbch)
  %cmp = icmp eq i64 %call, -1
  br i1 %cmp, label %if.then, label %if.end

if.then:                                          ; preds = %entry
  %1 = load ptr, ptr @stderr, align 8
  %2 = load i16, ptr %uch.addr, align 2
  %conv2 = zext i16 %2 to i32
  %call3 = call ptr @__errno_location() #12
  %3 = load i32, ptr %call3, align 4
  %call4 = call ptr @strerror(i32 noundef %3) #9
  %call5 = call i32 (ptr, ptr, ...) @fprintf(ptr noundef %1, ptr noundef @.str.8, i32 noundef %conv2, ptr noundef %call4)
  br label %return

if.end:                                           ; preds = %entry
  call void @llvm.memset.p0.i64(ptr align 4 %ps, i8 0, i64 8, i1 false)
  %arrayidx = getelementptr [2 x i32], ptr %wch, i64 0, i64 0
  %arraydecay6 = getelementptr inbounds [16 x i8], ptr %mbch, i64 0, i64 0
  %4 = load i64, ptr %smbch, align 8
  %sub = sub i64 16, %4
  %call7 = call i64 @mbrtowc(ptr noundef %arrayidx, ptr noundef %arraydecay6, i64 noundef %sub, ptr noundef %ps) #9
  %cmp8 = icmp eq i64 %call7, -1
  br i1 %cmp8, label %if.then10, label %if.end15

if.then10:                                        ; preds = %if.end
  %5 = load ptr, ptr @stderr, align 8
  %6 = load i16, ptr %uch.addr, align 2
  %conv11 = zext i16 %6 to i32
  %call12 = call ptr @__errno_location() #12
  %7 = load i32, ptr %call12, align 4
  %call13 = call ptr @strerror(i32 noundef %7) #9
  %call14 = call i32 (ptr, ptr, ...) @fprintf(ptr noundef %5, ptr noundef @.str.9, i32 noundef %conv11, ptr noundef %call13)
  br label %return

if.end15:                                         ; preds = %if.end
  %arrayidx16 = getelementptr [2 x i32], ptr %wch, i64 0, i64 1
  store i32 0, ptr %arrayidx16, align 4
  %8 = load ptr, ptr @vga_to_curses, align 8
  %9 = load i8, ptr %fch.addr, align 1
  %idxprom = zext i8 %9 to i64
  %arrayidx17 = getelementptr %struct.cchar_t, ptr %8, i64 %idxprom
  %arraydecay18 = getelementptr inbounds [2 x i32], ptr %wch, i64 0, i64 0
  %call19 = call i32 @setcchar(ptr noundef %arrayidx17, ptr noundef %arraydecay18, i32 noundef 0, i16 noundef signext 0, ptr noundef null)
  br label %return

return:                                           ; preds = %if.end15, %if.then10, %if.then
  ret void
}