; Function Attrs: nounwind sspstrong uwtable
define internal fastcc void @convert_ucs(i8 noundef zeroext %fch, i16 noundef zeroext %uch, ptr noundef %conv) unnamed_addr #0 {
entry:
  %uch.addr = alloca i16, align 2
  %mbch = alloca [16 x i8], align 16
  %wch = alloca [2 x i32], align 4
  %puch = alloca ptr, align 8
  %pmbch = alloca ptr, align 8
  %such = alloca i64, align 8
  %smbch = alloca i64, align 8
  %ps = alloca %struct.__mbstate_t, align 8
  store i16 %uch, ptr %uch.addr, align 2
  store ptr %uch.addr, ptr %puch, align 8
  store ptr %mbch, ptr %pmbch, align 8
  store i64 2, ptr %such, align 8
  store i64 16, ptr %smbch, align 8
  %call = call i64 @iconv(ptr noundef %conv, ptr noundef nonnull %puch, ptr noundef nonnull %such, ptr noundef nonnull %pmbch, ptr noundef nonnull %smbch) #13
  %cmp = icmp eq i64 %call, -1
  br i1 %cmp, label %if.then, label %if.end

if.then:                                          ; preds = %entry
  %0 = load ptr, ptr @stderr, align 8
  %1 = load i16, ptr %uch.addr, align 2
  %conv2 = zext i16 %1 to i32
  %call3 = tail call ptr @__errno_location() #17
  %2 = load i32, ptr %call3, align 4
  %call4 = call ptr @strerror(i32 noundef %2) #13
  %call5 = call i32 (ptr, ptr, ...) @fprintf(ptr noundef %0, ptr noundef nonnull @.str.8, i32 noundef %conv2, ptr noundef %call4) #14
  br label %return

if.end:                                           ; preds = %entry
  store i64 0, ptr %ps, align 8
  %3 = load i64, ptr %smbch, align 8
  %sub = sub i64 16, %3
  %call7 = call i64 @mbrtowc(ptr noundef nonnull %wch, ptr noundef nonnull %mbch, i64 noundef %sub, ptr noundef nonnull %ps) #13
  %cmp8 = icmp eq i64 %call7, -1
  br i1 %cmp8, label %if.then10, label %if.end15

if.then10:                                        ; preds = %if.end
  %4 = load ptr, ptr @stderr, align 8
  %5 = load i16, ptr %uch.addr, align 2
  %conv11 = zext i16 %5 to i32
  %call12 = tail call ptr @__errno_location() #17
  %6 = load i32, ptr %call12, align 4
  %call13 = call ptr @strerror(i32 noundef %6) #13
  %call14 = call i32 (ptr, ptr, ...) @fprintf(ptr noundef %4, ptr noundef nonnull @.str.9, i32 noundef %conv11, ptr noundef %call13) #14
  br label %return

if.end15:                                         ; preds = %if.end
  %arrayidx16 = getelementptr inbounds nuw i8, ptr %wch, i64 4
  store i32 0, ptr %arrayidx16, align 4
  %7 = load ptr, ptr @vga_to_curses, align 8
  %idxprom = zext i8 %fch to i64
  %arrayidx17 = getelementptr %struct.cchar_t, ptr %7, i64 %idxprom
  %call19 = call i32 @setcchar(ptr noundef %arrayidx17, ptr noundef nonnull %wch, i32 noundef 0, i16 noundef signext 0, ptr noundef null) #13
  br label %return

return:                                           ; preds = %if.end15, %if.then10, %if.then
  ret void
}